target datalayout = "e-m:e-p270:32:32-p271:32:32-p272:64:64-i64:64-i128:128-f80:128-n8:16:32:64-S128"
target triple = "x86_64-pc-linux-gnu"

%struct.OPTARGS = type { i32, i32, i32, i32, ptr, ptr, ptr, ptr, ptr, i32, i32, ptr, [21 x i8], [256 x ptr], ptr, ptr, ptr, ptr }

; Function Attrs: mustprogress uwtable
define hidden noundef ptr @_Z7opt_argP7OPTARGSPKc(ptr noundef %0, ptr noundef %1) #5 {
  %3 = alloca ptr, align 8
  %4 = alloca ptr, align 8
  %5 = alloca ptr, align 8
  %6 = alloca i32, align 4
  %7 = alloca i32, align 4
  store ptr %0, ptr %4, align 8, !tbaa !4
  store ptr %1, ptr %5, align 8, !tbaa !18
  call void @llvm.lifetime.start.p0(i64 4, ptr %6) #3
  %8 = load ptr, ptr %4, align 8, !tbaa !4
  %9 = load ptr, ptr %5, align 8, !tbaa !18
  %10 = call noundef i32 @_ZL11opt_ordinalP7OPTARGSPKc(ptr noundef %8, ptr noundef %9)
  store i32 %10, ptr %6, align 4, !tbaa !20
  %11 = load i32, ptr %6, align 4, !tbaa !20
  %12 = icmp eq i32 0, %11
  br i1 %12, label %13, label %14

13:                                               ; preds = %2
  store ptr null, ptr %3, align 8
  store i32 1, ptr %7, align 4
  br label %21

14:                                               ; preds = %2
  %15 = load ptr, ptr %4, align 8, !tbaa !4
  %16 = getelementptr inbounds nuw %struct.OPTARGS, ptr %15, i32 0, i32 13
  %17 = load i32, ptr %6, align 4, !tbaa !20
  %18 = sext i32 %17 to i64
  %19 = getelementptr inbounds [256 x ptr], ptr %16, i64 0, i64 %18
  %20 = load ptr, ptr %19, align 8, !tbaa !18
  store ptr %20, ptr %3, align 8
  store i32 1, ptr %7, align 4
  br label %21

21:                                               ; preds = %14, %13
  call void @llvm.lifetime.end.p0(i64 4, ptr %6) #3
  %22 = load ptr, ptr %3, align 8
  ret ptr %22
}