; Function Attrs: mustprogress nofree nounwind willreturn memory(read, inaccessiblemem: none) uwtable
define hidden noundef ptr @_Z7opt_argP7OPTARGSPKc(ptr noundef %0, ptr noundef %1) local_unnamed_addr #8 {
  %3 = tail call fastcc noundef i32 @_ZL11opt_ordinalP7OPTARGSPKc(ptr noundef %0, ptr noundef %1)
  %4 = icmp eq i32 %3, 0
  br i1 %4, label %10, label %5

5:                                                ; preds = %2
  %6 = getelementptr inbounds nuw i8, ptr %0, i64 96
  %7 = sext i32 %3 to i64
  %8 = getelementptr inbounds [256 x ptr], ptr %6, i64 0, i64 %7
  %9 = load ptr, ptr %8, align 8, !tbaa !16
  br label %10

10:                                               ; preds = %2, %5
  %.0 = phi ptr [ %9, %5 ], [ null, %2 ]
  ret ptr %.0
}